target datalayout = "e-m:e-p270:32:32-p271:32:32-p272:64:64-i64:64-i128:128-f80:128-n8:16:32:64-S128"
target triple = "x86_64-unknown-linux-gnu"

%"struct.node::http2::Http2Session::Callbacks" = type { %"class.std::unique_ptr" }
%"class.std::unique_ptr" = type { %"struct.std::__uniq_ptr_data" }
%"struct.std::__uniq_ptr_data" = type { %"class.std::__uniq_ptr_impl" }
%"class.std::__uniq_ptr_impl" = type { %"class.std::tuple" }
%"class.std::tuple" = type { %"struct.std::_Tuple_impl" }
%"struct.std::_Tuple_impl" = type { %"struct.std::_Head_base.1" }
%"struct.std::_Head_base.1" = type { ptr }
%"struct.node::AssertionInfo" = type { ptr, ptr, ptr }

@_ZZN4node5http212Http2Session9CallbacksC1EbE4args = internal constant %"struct.node::AssertionInfo" { ptr @.str.22, ptr @.str.23, ptr @.str.24 }, align 8

; Function Attrs: mustprogress nounwind uwtable
define linkonce_odr dso_local noundef nonnull align 1 dereferenceable(1) ptr @_ZNSt10_Head_baseILm1EN4node5http214Nghttp2DeleterI25nghttp2_session_callbacksXadL_Z29nghttp2_session_callbacks_delEEEELb1EE7_M_headERS5_(ptr noundef nonnull align 1 dereferenceable(1) %__b) #4 comdat align 2 {
entry:
  %__b.addr = alloca ptr, align 8
  store ptr %__b, ptr %__b.addr, align 8
  %0 = load ptr, ptr %__b.addr, align 8
  ret ptr %0
}

; Function Attrs: mustprogress nounwind uwtable
define linkonce_odr dso_local noundef nonnull align 8 dereferenceable(8) ptr @_ZNSt10_Head_baseILm0EP25nghttp2_session_callbacksLb0EE7_M_headERS2_(ptr noundef nonnull align 8 dereferenceable(8) %__b) #4 comdat align 2 {
entry:
  %__b.addr = alloca ptr, align 8
  store ptr %__b, ptr %__b.addr, align 8
  %0 = load ptr, ptr %__b.addr, align 8
  %_M_head_impl = getelementptr inbounds %"struct.std::_Head_base.1", ptr %0, i32 0, i32 0
  ret ptr %_M_head_impl
}

; Function Attrs: mustprogress nounwind uwtable
define linkonce_odr dso_local void @_ZNSt10_Head_baseILm1EN4node5http214Nghttp2DeleterI25nghttp2_session_callbacksXadL_Z29nghttp2_session_callbacks_delEEEELb1EEC2Ev(ptr noundef nonnull align 1 dereferenceable(1) %this) unnamed_addr #4 comdat align 2 {
entry:
  %this.addr = alloca ptr, align 8
  store ptr %this, ptr %this.addr, align 8
  ret void
}

; Function Attrs: mustprogress nounwind uwtable
define linkonce_odr dso_local noundef nonnull align 1 dereferenceable(1) ptr @_ZNSt11_Tuple_implILm1EJN4node5http214Nghttp2DeleterI25nghttp2_session_callbacksXadL_Z29nghttp2_session_callbacks_delEEEEEE7_M_headERS5_(ptr noundef nonnull align 1 dereferenceable(1) %__t) #4 comdat align 2 {
entry:
  %__t.addr = alloca ptr, align 8
  store ptr %__t, ptr %__t.addr, align 8
  %0 = load ptr, ptr %__t.addr, align 8
  %call = call noundef nonnull align 1 dereferenceable(1) ptr @_ZNSt10_Head_baseILm1EN4node5http214Nghttp2DeleterI25nghttp2_session_callbacksXadL_Z29nghttp2_session_callbacks_delEEEELb1EE7_M_headERS5_(ptr noundef nonnull align 1 dereferenceable(1) %0) #3
  ret ptr %call
}

; Function Attrs: mustprogress nounwind uwtable
define linkonce_odr dso_local noundef nonnull align 8 dereferenceable(8) ptr @_ZNSt11_Tuple_implILm0EJP25nghttp2_session_callbacksN4node5http214Nghttp2DeleterIS0_XadL_Z29nghttp2_session_callbacks_delEEEEEE7_M_headERS6_(ptr noundef nonnull align 8 dereferenceable(8) %__t) #4 comdat align 2 {
entry:
  %__t.addr = alloca ptr, align 8
  store ptr %__t, ptr %__t.addr, align 8
  %0 = load ptr, ptr %__t.addr, align 8
  %call = call noundef nonnull align 8 dereferenceable(8) ptr @_ZNSt10_Head_baseILm0EP25nghttp2_session_callbacksLb0EE7_M_headERS2_(ptr noundef nonnull align 8 dereferenceable(8) %0) #3
  ret ptr %call
}

; Function Attrs: mustprogress nounwind uwtable
define linkonce_odr dso_local void @_ZNSt10_Head_baseILm0EP25nghttp2_session_callbacksLb0EEC2Ev(ptr noundef nonnull align 8 dereferenceable(8) %this) unnamed_addr #4 comdat align 2 {
entry:
  %this.addr = alloca ptr, align 8
  store ptr %this, ptr %this.addr, align 8
  %this1 = load ptr, ptr %this.addr, align 8
  %_M_head_impl = getelementptr inbounds %"struct.std::_Head_base.1", ptr %this1, i32 0, i32 0
  store ptr null, ptr %_M_head_impl, align 8
  ret void
}

; Function Attrs: mustprogress nounwind uwtable
define linkonce_odr dso_local void @_ZNSt11_Tuple_implILm1EJN4node5http214Nghttp2DeleterI25nghttp2_session_callbacksXadL_Z29nghttp2_session_callbacks_delEEEEEEC2Ev(ptr noundef nonnull align 1 dereferenceable(1) %this) unnamed_addr #4 comdat align 2 {
entry:
  %this.addr = alloca ptr, align 8
  store ptr %this, ptr %this.addr, align 8
  %this1 = load ptr, ptr %this.addr, align 8
  call void @_ZNSt10_Head_baseILm1EN4node5http214Nghttp2DeleterI25nghttp2_session_callbacksXadL_Z29nghttp2_session_callbacks_delEEEELb1EEC2Ev(ptr noundef nonnull align 1 dereferenceable(1) %this1)
  ret void
}

; Function Attrs: mustprogress nounwind uwtable
define linkonce_odr dso_local noundef nonnull align 1 dereferenceable(1) ptr @_ZSt12__get_helperILm1EN4node5http214Nghttp2DeleterI25nghttp2_session_callbacksXadL_Z29nghttp2_session_callbacks_delEEEEJEERT0_RSt11_Tuple_implIXT_EJS5_DpT1_EE(ptr noundef nonnull align 1 dereferenceable(1) %__t) #4 comdat {
entry:
  %__t.addr = alloca ptr, align 8
  store ptr %__t, ptr %__t.addr, align 8
  %0 = load ptr, ptr %__t.addr, align 8
  %call = call noundef nonnull align 1 dereferenceable(1) ptr @_ZNSt11_Tuple_implILm1EJN4node5http214Nghttp2DeleterI25nghttp2_session_callbacksXadL_Z29nghttp2_session_callbacks_delEEEEEE7_M_headERS5_(ptr noundef nonnull align 1 dereferenceable(1) %0) #3
  ret ptr %call
}

; Function Attrs: mustprogress nounwind uwtable
define linkonce_odr dso_local noundef nonnull align 8 dereferenceable(8) ptr @_ZSt12__get_helperILm0EP25nghttp2_session_callbacksJN4node5http214Nghttp2DeleterIS0_XadL_Z29nghttp2_session_callbacks_delEEEEEERT0_RSt11_Tuple_implIXT_EJS6_DpT1_EE(ptr noundef nonnull align 8 dereferenceable(8) %__t) #4 comdat {
entry:
  %__t.addr = alloca ptr, align 8
  store ptr %__t, ptr %__t.addr, align 8
  %0 = load ptr, ptr %__t.addr, align 8
  %call = call noundef nonnull align 8 dereferenceable(8) ptr @_ZNSt11_Tuple_implILm0EJP25nghttp2_session_callbacksN4node5http214Nghttp2DeleterIS0_XadL_Z29nghttp2_session_callbacks_delEEEEEE7_M_headERS6_(ptr noundef nonnull align 8 dereferenceable(8) %0) #3
  ret ptr %call
}

; Function Attrs: mustprogress nounwind uwtable
define linkonce_odr dso_local void @_ZNSt11_Tuple_implILm0EJP25nghttp2_session_callbacksN4node5http214Nghttp2DeleterIS0_XadL_Z29nghttp2_session_callbacks_delEEEEEEC2Ev(ptr noundef nonnull align 8 dereferenceable(8) %this) unnamed_addr #4 comdat align 2 {
entry:
  %this.addr = alloca ptr, align 8
  store ptr %this, ptr %this.addr, align 8
  %this1 = load ptr, ptr %this.addr, align 8
  call void @_ZNSt11_Tuple_implILm1EJN4node5http214Nghttp2DeleterI25nghttp2_session_callbacksXadL_Z29nghttp2_session_callbacks_delEEEEEEC2Ev(ptr noundef nonnull align 1 dereferenceable(1) %this1)
  call void @_ZNSt10_Head_baseILm0EP25nghttp2_session_callbacksLb0EEC2Ev(ptr noundef nonnull align 8 dereferenceable(8) %this1)
  ret void
}

; Function Attrs: mustprogress nounwind uwtable
define linkonce_odr dso_local noundef nonnull align 1 dereferenceable(1) ptr @_ZSt3getILm1EJP25nghttp2_session_callbacksN4node5http214Nghttp2DeleterIS0_XadL_Z29nghttp2_session_callbacks_delEEEEEERNSt13tuple_elementIXT_ESt5tupleIJDpT0_EEE4typeERSA_(ptr noundef nonnull align 8 dereferenceable(8) %__t) #4 comdat {
entry:
  %__t.addr = alloca ptr, align 8
  store ptr %__t, ptr %__t.addr, align 8
  %0 = load ptr, ptr %__t.addr, align 8
  %call = call noundef nonnull align 1 dereferenceable(1) ptr @_ZSt12__get_helperILm1EN4node5http214Nghttp2DeleterI25nghttp2_session_callbacksXadL_Z29nghttp2_session_callbacks_delEEEEJEERT0_RSt11_Tuple_implIXT_EJS5_DpT1_EE(ptr noundef nonnull align 1 dereferenceable(1) %0) #3
  ret ptr %call
}

; Function Attrs: mustprogress nounwind uwtable
define linkonce_odr dso_local noundef nonnull align 8 dereferenceable(8) ptr @_ZSt3getILm0EJP25nghttp2_session_callbacksN4node5http214Nghttp2DeleterIS0_XadL_Z29nghttp2_session_callbacks_delEEEEEERNSt13tuple_elementIXT_ESt5tupleIJDpT0_EEE4typeERSA_(ptr noundef nonnull align 8 dereferenceable(8) %__t) #4 comdat {
entry:
  %__t.addr = alloca ptr, align 8
  store ptr %__t, ptr %__t.addr, align 8
  %0 = load ptr, ptr %__t.addr, align 8
  %call = call noundef nonnull align 8 dereferenceable(8) ptr @_ZSt12__get_helperILm0EP25nghttp2_session_callbacksJN4node5http214Nghttp2DeleterIS0_XadL_Z29nghttp2_session_callbacks_delEEEEEERT0_RSt11_Tuple_implIXT_EJS6_DpT1_EE(ptr noundef nonnull align 8 dereferenceable(8) %0) #3
  ret ptr %call
}

; Function Attrs: mustprogress nounwind uwtable
define linkonce_odr dso_local void @_ZNSt5tupleIJP25nghttp2_session_callbacksN4node5http214Nghttp2DeleterIS0_XadL_Z29nghttp2_session_callbacks_delEEEEEEC2ILb1ETnNSt9enable_ifIXclsr17_TupleConstraintsIXT_ES1_S5_EE37__is_implicitly_default_constructibleEEbE4typeELb1EEEv(ptr noundef nonnull align 8 dereferenceable(8) %this) unnamed_addr #4 comdat align 2 {
entry:
  %this.addr = alloca ptr, align 8
  store ptr %this, ptr %this.addr, align 8
  %this1 = load ptr, ptr %this.addr, align 8
  call void @_ZNSt11_Tuple_implILm0EJP25nghttp2_session_callbacksN4node5http214Nghttp2DeleterIS0_XadL_Z29nghttp2_session_callbacks_delEEEEEEC2Ev(ptr noundef nonnull align 8 dereferenceable(8) %this1)
  ret void
}

; Function Attrs: mustprogress nounwind uwtable
define linkonce_odr dso_local void @_ZNK4node5http214Nghttp2DeleterI25nghttp2_session_callbacksXadL_Z29nghttp2_session_callbacks_delEEEclEPS2_(ptr noundef nonnull align 1 dereferenceable(1) %this, ptr noundef %ptr) #4 comdat align 2 {
entry:
  %this.addr = alloca ptr, align 8
  %ptr.addr = alloca ptr, align 8
  store ptr %this, ptr %this.addr, align 8
  store ptr %ptr, ptr %ptr.addr, align 8
  %0 = load ptr, ptr %ptr.addr, align 8
  call void @nghttp2_session_callbacks_del(ptr noundef %0)
  ret void
}

; Function Attrs: mustprogress nounwind uwtable
define linkonce_odr dso_local noundef nonnull align 1 dereferenceable(1) ptr @_ZNSt15__uniq_ptr_implI25nghttp2_session_callbacksN4node5http214Nghttp2DeleterIS0_XadL_Z29nghttp2_session_callbacks_delEEEEE10_M_deleterEv(ptr noundef nonnull align 8 dereferenceable(8) %this) #4 comdat align 2 {
entry:
  %this.addr = alloca ptr, align 8
  store ptr %this, ptr %this.addr, align 8
  %this1 = load ptr, ptr %this.addr, align 8
  %_M_t = getelementptr inbounds %"class.std::__uniq_ptr_impl", ptr %this1, i32 0, i32 0
  %call = call noundef nonnull align 1 dereferenceable(1) ptr @_ZSt3getILm1EJP25nghttp2_session_callbacksN4node5http214Nghttp2DeleterIS0_XadL_Z29nghttp2_session_callbacks_delEEEEEERNSt13tuple_elementIXT_ESt5tupleIJDpT0_EEE4typeERSA_(ptr noundef nonnull align 8 dereferenceable(8) %_M_t) #3
  ret ptr %call
}

; Function Attrs: mustprogress nounwind uwtable
define linkonce_odr dso_local noundef nonnull align 8 dereferenceable(8) ptr @_ZNSt15__uniq_ptr_implI25nghttp2_session_callbacksN4node5http214Nghttp2DeleterIS0_XadL_Z29nghttp2_session_callbacks_delEEEEE6_M_ptrEv(ptr noundef nonnull align 8 dereferenceable(8) %this) #4 comdat align 2 {
entry:
  %this.addr = alloca ptr, align 8
  store ptr %this, ptr %this.addr, align 8
  %this1 = load ptr, ptr %this.addr, align 8
  %_M_t = getelementptr inbounds %"class.std::__uniq_ptr_impl", ptr %this1, i32 0, i32 0
  %call = call noundef nonnull align 8 dereferenceable(8) ptr @_ZSt3getILm0EJP25nghttp2_session_callbacksN4node5http214Nghttp2DeleterIS0_XadL_Z29nghttp2_session_callbacks_delEEEEEERNSt13tuple_elementIXT_ESt5tupleIJDpT0_EEE4typeERSA_(ptr noundef nonnull align 8 dereferenceable(8) %_M_t) #3
  ret ptr %call
}

; Function Attrs: mustprogress nounwind uwtable
define linkonce_odr dso_local void @_ZNSt15__uniq_ptr_implI25nghttp2_session_callbacksN4node5http214Nghttp2DeleterIS0_XadL_Z29nghttp2_session_callbacks_delEEEEEC2Ev(ptr noundef nonnull align 8 dereferenceable(8) %this) unnamed_addr #4 comdat align 2 {
entry:
  %this.addr = alloca ptr, align 8
  store ptr %this, ptr %this.addr, align 8
  %this1 = load ptr, ptr %this.addr, align 8
  %_M_t = getelementptr inbounds %"class.std::__uniq_ptr_impl", ptr %this1, i32 0, i32 0
  call void @_ZNSt5tupleIJP25nghttp2_session_callbacksN4node5http214Nghttp2DeleterIS0_XadL_Z29nghttp2_session_callbacks_delEEEEEEC2ILb1ETnNSt9enable_ifIXclsr17_TupleConstraintsIXT_ES1_S5_EE37__is_implicitly_default_constructibleEEbE4typeELb1EEEv(ptr noundef nonnull align 8 dereferenceable(8) %_M_t) #3
  ret void
}

; Function Attrs: mustprogress nounwind uwtable
define linkonce_odr dso_local void @_ZNSt15__uniq_ptr_implI25nghttp2_session_callbacksN4node5http214Nghttp2DeleterIS0_XadL_Z29nghttp2_session_callbacks_delEEEEE5resetEPS0_(ptr noundef nonnull align 8 dereferenceable(8) %this, ptr noundef %__p) #4 comdat align 2 {
entry:
  %this.addr = alloca ptr, align 8
  %__p.addr = alloca ptr, align 8
  %__old_p = alloca ptr, align 8
  store ptr %this, ptr %this.addr, align 8
  store ptr %__p, ptr %__p.addr, align 8
  %this1 = load ptr, ptr %this.addr, align 8
  %call = call noundef nonnull align 8 dereferenceable(8) ptr @_ZNSt15__uniq_ptr_implI25nghttp2_session_callbacksN4node5http214Nghttp2DeleterIS0_XadL_Z29nghttp2_session_callbacks_delEEEEE6_M_ptrEv(ptr noundef nonnull align 8 dereferenceable(8) %this1) #3
  %0 = load ptr, ptr %call, align 8
  store ptr %0, ptr %__old_p, align 8
  %1 = load ptr, ptr %__p.addr, align 8
  %call2 = call noundef nonnull align 8 dereferenceable(8) ptr @_ZNSt15__uniq_ptr_implI25nghttp2_session_callbacksN4node5http214Nghttp2DeleterIS0_XadL_Z29nghttp2_session_callbacks_delEEEEE6_M_ptrEv(ptr noundef nonnull align 8 dereferenceable(8) %this1) #3
  store ptr %1, ptr %call2, align 8
  %2 = load ptr, ptr %__old_p, align 8
  %tobool = icmp ne ptr %2, null
  br i1 %tobool, label %if.then, label %if.end

if.then:                                          ; preds = %entry
  %call3 = call noundef nonnull align 1 dereferenceable(1) ptr @_ZNSt15__uniq_ptr_implI25nghttp2_session_callbacksN4node5http214Nghttp2DeleterIS0_XadL_Z29nghttp2_session_callbacks_delEEEEE10_M_deleterEv(ptr noundef nonnull align 8 dereferenceable(8) %this1) #3
  %3 = load ptr, ptr %__old_p, align 8
  call void @_ZNK4node5http214Nghttp2DeleterI25nghttp2_session_callbacksXadL_Z29nghttp2_session_callbacks_delEEEclEPS2_(ptr noundef nonnull align 1 dereferenceable(1) %call3, ptr noundef %3) #3
  br label %if.end

if.end:                                           ; preds = %if.then, %entry
  ret void
}

; Function Attrs: mustprogress nounwind uwtable
define linkonce_odr dso_local void @_ZNSt15__uniq_ptr_dataI25nghttp2_session_callbacksN4node5http214Nghttp2DeleterIS0_XadL_Z29nghttp2_session_callbacks_delEEEELb1ELb1EEC2Ev(ptr noundef nonnull align 8 dereferenceable(8) %this) unnamed_addr #4 comdat align 2 {
entry:
  %this.addr = alloca ptr, align 8
  store ptr %this, ptr %this.addr, align 8
  %this1 = load ptr, ptr %this.addr, align 8
  call void @_ZNSt15__uniq_ptr_implI25nghttp2_session_callbacksN4node5http214Nghttp2DeleterIS0_XadL_Z29nghttp2_session_callbacks_delEEEEEC2Ev(ptr noundef nonnull align 8 dereferenceable(8) %this1) #3
  ret void
}

; Function Attrs: mustprogress nounwind uwtable
define linkonce_odr dso_local void @_ZNSt10unique_ptrI25nghttp2_session_callbacksN4node5http214Nghttp2DeleterIS0_XadL_Z29nghttp2_session_callbacks_delEEEEE5resetEPS0_(ptr noundef nonnull align 8 dereferenceable(8) %this, ptr noundef %__p) #4 comdat align 2 {
entry:
  %this.addr = alloca ptr, align 8
  %__p.addr = alloca ptr, align 8
  store ptr %this, ptr %this.addr, align 8
  store ptr %__p, ptr %__p.addr, align 8
  %this1 = load ptr, ptr %this.addr, align 8
  %_M_t = getelementptr inbounds %"class.std::unique_ptr", ptr %this1, i32 0, i32 0
  %0 = load ptr, ptr %__p.addr, align 8
  call void @_ZNSt15__uniq_ptr_implI25nghttp2_session_callbacksN4node5http214Nghttp2DeleterIS0_XadL_Z29nghttp2_session_callbacks_delEEEEE5resetEPS0_(ptr noundef nonnull align 8 dereferenceable(8) %_M_t, ptr noundef %0) #3
  ret void
}

; Function Attrs: mustprogress nounwind uwtable
define linkonce_odr dso_local void @_ZNSt10unique_ptrI25nghttp2_session_callbacksN4node5http214Nghttp2DeleterIS0_XadL_Z29nghttp2_session_callbacks_delEEEEEC2IS4_vEEv(ptr noundef nonnull align 8 dereferenceable(8) %this) unnamed_addr #4 comdat align 2 {
entry:
  %this.addr = alloca ptr, align 8
  store ptr %this, ptr %this.addr, align 8
  %this1 = load ptr, ptr %this.addr, align 8
  %_M_t = getelementptr inbounds %"class.std::unique_ptr", ptr %this1, i32 0, i32 0
  call void @llvm.memset.p0.i64(ptr align 8 %_M_t, i8 0, i64 8, i1 false)
  call void @_ZNSt15__uniq_ptr_dataI25nghttp2_session_callbacksN4node5http214Nghttp2DeleterIS0_XadL_Z29nghttp2_session_callbacks_delEEEELb1ELb1EEC2Ev(ptr noundef nonnull align 8 dereferenceable(8) %_M_t) #3
  ret void
}

; Function Attrs: mustprogress nounwind uwtable
define dso_local void @_ZN4node5http212Http2Session9CallbacksC2Eb(ptr noundef nonnull align 8 dereferenceable(8) %this, i1 noundef zeroext %kHasGetPaddingCallback) unnamed_addr #4 align 2 {
entry:
  %this.addr = alloca ptr, align 8
  %kHasGetPaddingCallback.addr = alloca i8, align 1
  %callbacks_ = alloca ptr, align 8
  store ptr %this, ptr %this.addr, align 8
  %frombool = zext i1 %kHasGetPaddingCallback to i8
  store i8 %frombool, ptr %kHasGetPaddingCallback.addr, align 1
  %this1 = load ptr, ptr %this.addr, align 8
  %callbacks = getelementptr inbounds %"struct.node::http2::Http2Session::Callbacks", ptr %this1, i32 0, i32 0
  call void @_ZNSt10unique_ptrI25nghttp2_session_callbacksN4node5http214Nghttp2DeleterIS0_XadL_Z29nghttp2_session_callbacks_delEEEEEC2IS4_vEEv(ptr noundef nonnull align 8 dereferenceable(8) %callbacks) #3
  br label %do.body

do.body:                                          ; preds = %entry
  %call = call i32 @nghttp2_session_callbacks_new(ptr noundef %callbacks_)
  %cmp = icmp eq i32 %call, 0
  %lnot = xor i1 %cmp, true
  %lnot2 = xor i1 %lnot, true
  %lnot3 = xor i1 %lnot2, true
  br i1 %lnot3, label %if.then, label %if.end

if.then:                                          ; preds = %do.body
  br label %do.body4

do.body4:                                         ; preds = %if.then
  call void @_ZN4node6AssertERKNS_13AssertionInfoE(ptr noundef nonnull align 8 dereferenceable(24) @_ZZN4node5http212Http2Session9CallbacksC1EbE4args)
  call void @abort() #15
  unreachable

do.end:                                           ; No predecessors!
  br label %if.end

if.end:                                           ; preds = %do.end, %do.body
  br label %do.end5

do.end5:                                          ; preds = %if.end
  %callbacks6 = getelementptr inbounds %"struct.node::http2::Http2Session::Callbacks", ptr %this1, i32 0, i32 0
  %0 = load ptr, ptr %callbacks_, align 8
  call void @_ZNSt10unique_ptrI25nghttp2_session_callbacksN4node5http214Nghttp2DeleterIS0_XadL_Z29nghttp2_session_callbacks_delEEEEE5resetEPS0_(ptr noundef nonnull align 8 dereferenceable(8) %callbacks6, ptr noundef %0) #3
  %1 = load ptr, ptr %callbacks_, align 8
  call void @nghttp2_session_callbacks_set_on_begin_headers_callback(ptr noundef %1, ptr noundef @_ZN4node5http212Http2Session22OnBeginHeadersCallbackEP15nghttp2_sessionPK13nghttp2_framePv)
  %2 = load ptr, ptr %callbacks_, align 8
  call void @nghttp2_session_callbacks_set_on_header_callback2(ptr noundef %2, ptr noundef @_ZN4node5http212Http2Session16OnHeaderCallbackEP15nghttp2_sessionPK13nghttp2_frameP13nghttp2_rcbufS8_hPv)
  %3 = load ptr, ptr %callbacks_, align 8
  call void @nghttp2_session_callbacks_set_on_frame_recv_callback(ptr noundef %3, ptr noundef @_ZN4node5http212Http2Session14OnFrameReceiveEP15nghttp2_sessionPK13nghttp2_framePv)
  %4 = load ptr, ptr %callbacks_, align 8
  call void @nghttp2_session_callbacks_set_on_stream_close_callback(ptr noundef %4, ptr noundef @_ZN4node5http212Http2Session13OnStreamCloseEP15nghttp2_sessionijPv)
  %5 = load ptr, ptr %callbacks_, align 8
  call void @nghttp2_session_callbacks_set_on_data_chunk_recv_callback(ptr noundef %5, ptr noundef @_ZN4node5http212Http2Session19OnDataChunkReceivedEP15nghttp2_sessionhiPKhmPv)
  %6 = load ptr, ptr %callbacks_, align 8
  call void @nghttp2_session_callbacks_set_on_frame_not_send_callback(ptr noundef %6, ptr noundef @_ZN4node5http212Http2Session14OnFrameNotSentEP15nghttp2_sessionPK13nghttp2_frameiPv)
  %7 = load ptr, ptr %callbacks_, align 8
  call void @nghttp2_session_callbacks_set_on_invalid_header_callback2(ptr noundef %7, ptr noundef @_ZN4node5http212Http2Session15OnInvalidHeaderEP15nghttp2_sessionPK13nghttp2_frameP13nghttp2_rcbufS8_hPv)
  %8 = load ptr, ptr %callbacks_, align 8
  call void @nghttp2_session_callbacks_set_error_callback2(ptr noundef %8, ptr noundef @_ZN4node5http212Http2Session13OnNghttpErrorEP15nghttp2_sessioniPKcmPv)
  %9 = load ptr, ptr %callbacks_, align 8
  call void @nghttp2_session_callbacks_set_send_data_callback(ptr noundef %9, ptr noundef @_ZN4node5http212Http2Session10OnSendDataEP15nghttp2_sessionP13nghttp2_framePKhmP19nghttp2_data_sourcePv)
  %10 = load ptr, ptr %callbacks_, align 8
  call void @nghttp2_session_callbacks_set_on_invalid_frame_recv_callback(ptr noundef %10, ptr noundef @_ZN4node5http212Http2Session14OnInvalidFrameEP15nghttp2_sessionPK13nghttp2_frameiPv)
  %11 = load ptr, ptr %callbacks_, align 8
  call void @nghttp2_session_callbacks_set_on_frame_send_callback(ptr noundef %11, ptr noundef @_ZN4node5http212Http2Session11OnFrameSentEP15nghttp2_sessionPK13nghttp2_framePv)
  %12 = load i8, ptr %kHasGetPaddingCallback.addr, align 1
  %tobool = trunc i8 %12 to i1
  br i1 %tobool, label %if.then7, label %if.end8

if.then7:                                         ; preds = %do.end5
  %13 = load ptr, ptr %callbacks_, align 8
  call void @nghttp2_session_callbacks_set_select_padding_callback(ptr noundef %13, ptr noundef @_ZN4node5http212Http2Session15OnSelectPaddingEP15nghttp2_sessionPK13nghttp2_framemPv)
  br label %if.end8

if.end8:                                          ; preds = %if.then7, %do.end5
  ret void
}