; Function Attrs: mustprogress nounwind uwtable
define dso_local void @_ZN4node5http212Http2Session9CallbacksC2Eb(ptr nocapture noundef nonnull align 8 dereferenceable(8) %this, i1 noundef zeroext %kHasGetPaddingCallback) unnamed_addr #4 align 2 {
entry:
  %callbacks_ = alloca ptr, align 8
  store ptr null, ptr %this, align 8
  %call = call i32 @nghttp2_session_callbacks_new(ptr noundef nonnull %callbacks_) #29
  %cmp.not = icmp eq i32 %call, 0
  br i1 %cmp.not, label %do.end5, label %do.body4

do.body4:                                         ; preds = %entry
  call void @_ZN4node6AssertERKNS_13AssertionInfoE(ptr noundef nonnull align 8 dereferenceable(24) @_ZZN4node5http212Http2Session9CallbacksC1EbE4args) #29
  call void @abort() #30
  unreachable

do.end5:                                          ; preds = %entry
  %0 = load ptr, ptr %callbacks_, align 8
  %1 = load ptr, ptr %this, align 8
  store ptr %0, ptr %this, align 8
  %tobool.not.i.i = icmp eq ptr %1, null
  br i1 %tobool.not.i.i, label %_ZNSt10unique_ptrI25nghttp2_session_callbacksN4node5http214Nghttp2DeleterIS0_XadL_Z29nghttp2_session_callbacks_delEEEEE5resetEPS0_.exit, label %if.then.i.i

if.then.i.i:                                      ; preds = %do.end5
  call void @nghttp2_session_callbacks_del(ptr noundef nonnull %1) #29
  %.pre = load ptr, ptr %callbacks_, align 8
  br label %_ZNSt10unique_ptrI25nghttp2_session_callbacksN4node5http214Nghttp2DeleterIS0_XadL_Z29nghttp2_session_callbacks_delEEEEE5resetEPS0_.exit

_ZNSt10unique_ptrI25nghttp2_session_callbacksN4node5http214Nghttp2DeleterIS0_XadL_Z29nghttp2_session_callbacks_delEEEEE5resetEPS0_.exit: ; preds = %do.end5, %if.then.i.i
  %2 = phi ptr [ %0, %do.end5 ], [ %.pre, %if.then.i.i ]
  call void @nghttp2_session_callbacks_set_on_begin_headers_callback(ptr noundef %2, ptr noundef nonnull @_ZN4node5http212Http2Session22OnBeginHeadersCallbackEP15nghttp2_sessionPK13nghttp2_framePv) #29
  %3 = load ptr, ptr %callbacks_, align 8
  call void @nghttp2_session_callbacks_set_on_header_callback2(ptr noundef %3, ptr noundef nonnull @_ZN4node5http212Http2Session16OnHeaderCallbackEP15nghttp2_sessionPK13nghttp2_frameP13nghttp2_rcbufS8_hPv) #29
  %4 = load ptr, ptr %callbacks_, align 8
  call void @nghttp2_session_callbacks_set_on_frame_recv_callback(ptr noundef %4, ptr noundef nonnull @_ZN4node5http212Http2Session14OnFrameReceiveEP15nghttp2_sessionPK13nghttp2_framePv) #29
  %5 = load ptr, ptr %callbacks_, align 8
  call void @nghttp2_session_callbacks_set_on_stream_close_callback(ptr noundef %5, ptr noundef nonnull @_ZN4node5http212Http2Session13OnStreamCloseEP15nghttp2_sessionijPv) #29
  %6 = load ptr, ptr %callbacks_, align 8
  call void @nghttp2_session_callbacks_set_on_data_chunk_recv_callback(ptr noundef %6, ptr noundef nonnull @_ZN4node5http212Http2Session19OnDataChunkReceivedEP15nghttp2_sessionhiPKhmPv) #29
  %7 = load ptr, ptr %callbacks_, align 8
  call void @nghttp2_session_callbacks_set_on_frame_not_send_callback(ptr noundef %7, ptr noundef nonnull @_ZN4node5http212Http2Session14OnFrameNotSentEP15nghttp2_sessionPK13nghttp2_frameiPv) #29
  %8 = load ptr, ptr %callbacks_, align 8
  call void @nghttp2_session_callbacks_set_on_invalid_header_callback2(ptr noundef %8, ptr noundef nonnull @_ZN4node5http212Http2Session15OnInvalidHeaderEP15nghttp2_sessionPK13nghttp2_frameP13nghttp2_rcbufS8_hPv) #29
  %9 = load ptr, ptr %callbacks_, align 8
  call void @nghttp2_session_callbacks_set_error_callback2(ptr noundef %9, ptr noundef nonnull @_ZN4node5http212Http2Session13OnNghttpErrorEP15nghttp2_sessioniPKcmPv) #29
  %10 = load ptr, ptr %callbacks_, align 8
  call void @nghttp2_session_callbacks_set_send_data_callback(ptr noundef %10, ptr noundef nonnull @_ZN4node5http212Http2Session10OnSendDataEP15nghttp2_sessionP13nghttp2_framePKhmP19nghttp2_data_sourcePv) #29
  %11 = load ptr, ptr %callbacks_, align 8
  call void @nghttp2_session_callbacks_set_on_invalid_frame_recv_callback(ptr noundef %11, ptr noundef nonnull @_ZN4node5http212Http2Session14OnInvalidFrameEP15nghttp2_sessionPK13nghttp2_frameiPv) #29
  %12 = load ptr, ptr %callbacks_, align 8
  call void @nghttp2_session_callbacks_set_on_frame_send_callback(ptr noundef %12, ptr noundef nonnull @_ZN4node5http212Http2Session11OnFrameSentEP15nghttp2_sessionPK13nghttp2_framePv) #29
  br i1 %kHasGetPaddingCallback, label %if.then7, label %if.end8

if.then7:                                         ; preds = %_ZNSt10unique_ptrI25nghttp2_session_callbacksN4node5http214Nghttp2DeleterIS0_XadL_Z29nghttp2_session_callbacks_delEEEEE5resetEPS0_.exit
  %13 = load ptr, ptr %callbacks_, align 8
  call void @nghttp2_session_callbacks_set_select_padding_callback(ptr noundef %13, ptr noundef nonnull @_ZN4node5http212Http2Session15OnSelectPaddingEP15nghttp2_sessionPK13nghttp2_framemPv) #29
  br label %if.end8

if.end8:                                          ; preds = %if.then7, %_ZNSt10unique_ptrI25nghttp2_session_callbacksN4node5http214Nghttp2DeleterIS0_XadL_Z29nghttp2_session_callbacks_delEEEEE5resetEPS0_.exit
  ret void
}